target datalayout = "e-m:e-p270:32:32-p271:32:32-p272:64:64-i64:64-i128:128-f80:128-n8:16:32:64-S128"
target triple = "x86_64-pc-linux-gnu"

%struct.Vec_Wrd_t_ = type { i32, i32, ptr }
%struct.Supp_Man_t_ = type { i32, i32, i32, i32, ptr, ptr, ptr, ptr, ptr, ptr, [2 x ptr], [2 x ptr], [2 x ptr], ptr, ptr, ptr, ptr, ptr, ptr, ptr, ptr, ptr, ptr, ptr, ptr, ptr }

; Function Attrs: inlinehint nounwind uwtable
define internal i32 @Abc_Tt6FirstBit(i64 noundef %0) #2 {
  %2 = alloca i32, align 4
  %3 = alloca i64, align 8
  %4 = alloca i32, align 4
  %5 = alloca i32, align 4
  store i64 %0, ptr %3, align 8, !tbaa !17
  call void @llvm.lifetime.start.p0(i64 4, ptr %4) #15
  store i32 0, ptr %4, align 4, !tbaa !8
  %6 = load i64, ptr %3, align 8, !tbaa !17
  %7 = icmp eq i64 %6, 0
  br i1 %7, label %8, label %9

8:                                                ; preds = %1
  store i32 -1, ptr %2, align 4
  store i32 1, ptr %5, align 4
  br label %63

9:                                                ; preds = %1
  %10 = load i64, ptr %3, align 8, !tbaa !17
  %11 = and i64 %10, 4294967295
  %12 = icmp eq i64 %11, 0
  br i1 %12, label %13, label %18

13:                                               ; preds = %9
  %14 = load i32, ptr %4, align 4, !tbaa !8
  %15 = add nsw i32 %14, 32
  store i32 %15, ptr %4, align 4, !tbaa !8
  %16 = load i64, ptr %3, align 8, !tbaa !17
  %17 = lshr i64 %16, 32
  store i64 %17, ptr %3, align 8, !tbaa !17
  br label %18

18:                                               ; preds = %13, %9
  %19 = load i64, ptr %3, align 8, !tbaa !17
  %20 = and i64 %19, 65535
  %21 = icmp eq i64 %20, 0
  br i1 %21, label %22, label %27

22:                                               ; preds = %18
  %23 = load i32, ptr %4, align 4, !tbaa !8
  %24 = add nsw i32 %23, 16
  store i32 %24, ptr %4, align 4, !tbaa !8
  %25 = load i64, ptr %3, align 8, !tbaa !17
  %26 = lshr i64 %25, 16
  store i64 %26, ptr %3, align 8, !tbaa !17
  br label %27

27:                                               ; preds = %22, %18
  %28 = load i64, ptr %3, align 8, !tbaa !17
  %29 = and i64 %28, 255
  %30 = icmp eq i64 %29, 0
  br i1 %30, label %31, label %36

31:                                               ; preds = %27
  %32 = load i32, ptr %4, align 4, !tbaa !8
  %33 = add nsw i32 %32, 8
  store i32 %33, ptr %4, align 4, !tbaa !8
  %34 = load i64, ptr %3, align 8, !tbaa !17
  %35 = lshr i64 %34, 8
  store i64 %35, ptr %3, align 8, !tbaa !17
  br label %36

36:                                               ; preds = %31, %27
  %37 = load i64, ptr %3, align 8, !tbaa !17
  %38 = and i64 %37, 15
  %39 = icmp eq i64 %38, 0
  br i1 %39, label %40, label %45

40:                                               ; preds = %36
  %41 = load i32, ptr %4, align 4, !tbaa !8
  %42 = add nsw i32 %41, 4
  store i32 %42, ptr %4, align 4, !tbaa !8
  %43 = load i64, ptr %3, align 8, !tbaa !17
  %44 = lshr i64 %43, 4
  store i64 %44, ptr %3, align 8, !tbaa !17
  br label %45

45:                                               ; preds = %40, %36
  %46 = load i64, ptr %3, align 8, !tbaa !17
  %47 = and i64 %46, 3
  %48 = icmp eq i64 %47, 0
  br i1 %48, label %49, label %54

49:                                               ; preds = %45
  %50 = load i32, ptr %4, align 4, !tbaa !8
  %51 = add nsw i32 %50, 2
  store i32 %51, ptr %4, align 4, !tbaa !8
  %52 = load i64, ptr %3, align 8, !tbaa !17
  %53 = lshr i64 %52, 2
  store i64 %53, ptr %3, align 8, !tbaa !17
  br label %54

54:                                               ; preds = %49, %45
  %55 = load i64, ptr %3, align 8, !tbaa !17
  %56 = and i64 %55, 1
  %57 = icmp eq i64 %56, 0
  br i1 %57, label %58, label %61

58:                                               ; preds = %54
  %59 = load i32, ptr %4, align 4, !tbaa !8
  %60 = add nsw i32 %59, 1
  store i32 %60, ptr %4, align 4, !tbaa !8
  br label %61

61:                                               ; preds = %58, %54
  %62 = load i32, ptr %4, align 4, !tbaa !8
  store i32 %62, ptr %2, align 4
  store i32 1, ptr %5, align 4
  br label %63

63:                                               ; preds = %61, %8
  call void @llvm.lifetime.end.p0(i64 4, ptr %4) #15
  %64 = load i32, ptr %2, align 4
  ret i32 %64
}

; Function Attrs: inlinehint nounwind uwtable
define internal i32 @Abc_MinInt(i32 noundef %0, i32 noundef %1) #2 {
  %3 = alloca i32, align 4
  %4 = alloca i32, align 4
  store i32 %0, ptr %3, align 4, !tbaa !8
  store i32 %1, ptr %4, align 4, !tbaa !8
  %5 = load i32, ptr %3, align 4, !tbaa !8
  %6 = load i32, ptr %4, align 4, !tbaa !8
  %7 = icmp slt i32 %5, %6
  br i1 %7, label %8, label %10

8:                                                ; preds = %2
  %9 = load i32, ptr %3, align 4, !tbaa !8
  br label %12

10:                                               ; preds = %2
  %11 = load i32, ptr %4, align 4, !tbaa !8
  br label %12

12:                                               ; preds = %10, %8
  %13 = phi i32 [ %9, %8 ], [ %11, %10 ]
  ret i32 %13
}

; Function Attrs: inlinehint nounwind uwtable
define internal i32 @Abc_TtFindFirstAndBit2(ptr noundef %0, ptr noundef %1, i32 noundef %2) #2 {
  %4 = alloca i32, align 4
  %5 = alloca ptr, align 8
  %6 = alloca ptr, align 8
  %7 = alloca i32, align 4
  %8 = alloca i32, align 4
  %9 = alloca i32, align 4
  store ptr %0, ptr %5, align 8, !tbaa !10
  store ptr %1, ptr %6, align 8, !tbaa !10
  store i32 %2, ptr %7, align 4, !tbaa !8
  call void @llvm.lifetime.start.p0(i64 4, ptr %8) #15
  store i32 0, ptr %8, align 4, !tbaa !8
  br label %10

10:                                               ; preds = %44, %3
  %11 = load i32, ptr %8, align 4, !tbaa !8
  %12 = load i32, ptr %7, align 4, !tbaa !8
  %13 = icmp slt i32 %11, %12
  br i1 %13, label %14, label %47

14:                                               ; preds = %10
  %15 = load ptr, ptr %5, align 8, !tbaa !10
  %16 = load i32, ptr %8, align 4, !tbaa !8
  %17 = sext i32 %16 to i64
  %18 = getelementptr inbounds i64, ptr %15, i64 %17
  %19 = load i64, ptr %18, align 8, !tbaa !17
  %20 = load ptr, ptr %6, align 8, !tbaa !10
  %21 = load i32, ptr %8, align 4, !tbaa !8
  %22 = sext i32 %21 to i64
  %23 = getelementptr inbounds i64, ptr %20, i64 %22
  %24 = load i64, ptr %23, align 8, !tbaa !17
  %25 = and i64 %19, %24
  %26 = icmp ne i64 %25, 0
  br i1 %26, label %27, label %43

27:                                               ; preds = %14
  %28 = load i32, ptr %8, align 4, !tbaa !8
  %29 = mul nsw i32 64, %28
  %30 = load ptr, ptr %5, align 8, !tbaa !10
  %31 = load i32, ptr %8, align 4, !tbaa !8
  %32 = sext i32 %31 to i64
  %33 = getelementptr inbounds i64, ptr %30, i64 %32
  %34 = load i64, ptr %33, align 8, !tbaa !17
  %35 = load ptr, ptr %6, align 8, !tbaa !10
  %36 = load i32, ptr %8, align 4, !tbaa !8
  %37 = sext i32 %36 to i64
  %38 = getelementptr inbounds i64, ptr %35, i64 %37
  %39 = load i64, ptr %38, align 8, !tbaa !17
  %40 = and i64 %34, %39
  %41 = call i32 @Abc_Tt6FirstBit(i64 noundef %40)
  %42 = add nsw i32 %29, %41
  store i32 %42, ptr %4, align 4
  store i32 1, ptr %9, align 4
  br label %48

43:                                               ; preds = %14
  br label %44

44:                                               ; preds = %43
  %45 = load i32, ptr %8, align 4, !tbaa !8
  %46 = add nsw i32 %45, 1
  store i32 %46, ptr %8, align 4, !tbaa !8
  br label %10, !llvm.loop !154

47:                                               ; preds = %10
  store i32 -1, ptr %4, align 4
  store i32 1, ptr %9, align 4
  br label %48

48:                                               ; preds = %47, %27
  call void @llvm.lifetime.end.p0(i64 4, ptr %8) #15
  %49 = load i32, ptr %4, align 4
  ret i32 %49
}

; Function Attrs: inlinehint nounwind uwtable
define internal ptr @Vec_WrdEntryP(ptr noundef %0, i32 noundef %1) #2 {
  %3 = alloca ptr, align 8
  %4 = alloca i32, align 4
  store ptr %0, ptr %3, align 8, !tbaa !3
  store i32 %1, ptr %4, align 4, !tbaa !8
  %5 = load ptr, ptr %3, align 8, !tbaa !3
  %6 = getelementptr inbounds nuw %struct.Vec_Wrd_t_, ptr %5, i32 0, i32 2
  %7 = load ptr, ptr %6, align 8, !tbaa !16
  %8 = load i32, ptr %4, align 4, !tbaa !8
  %9 = sext i32 %8 to i64
  %10 = getelementptr inbounds i64, ptr %7, i64 %9
  ret ptr %10
}

; Function Attrs: nounwind uwtable
define i32 @Supp_FindNextDiv(ptr noundef %0, i32 noundef %1) #0 {
  %3 = alloca i32, align 4
  %4 = alloca ptr, align 8
  %5 = alloca i32, align 4
  %6 = alloca i32, align 4
  %7 = alloca i32, align 4
  %8 = alloca i32, align 4
  %9 = alloca ptr, align 8
  %10 = alloca ptr, align 8
  %11 = alloca ptr, align 8
  %12 = alloca ptr, align 8
  %13 = alloca i32, align 4
  %14 = alloca i32, align 4
  %15 = alloca i32, align 4
  store ptr %0, ptr %4, align 8, !tbaa !24
  store i32 %1, ptr %5, align 4, !tbaa !8
  call void @llvm.lifetime.start.p0(i64 4, ptr %6) #15
  call void @llvm.lifetime.start.p0(i64 4, ptr %7) #15
  %16 = load i32, ptr %5, align 4, !tbaa !8
  %17 = ashr i32 %16, 16
  store i32 %17, ptr %7, align 4, !tbaa !8
  call void @llvm.lifetime.start.p0(i64 4, ptr %8) #15
  %18 = load i32, ptr %5, align 4, !tbaa !8
  %19 = and i32 %18, 65535
  store i32 %19, ptr %8, align 4, !tbaa !8
  call void @llvm.lifetime.start.p0(i64 8, ptr %9) #15
  %20 = load ptr, ptr %4, align 8, !tbaa !24
  %21 = getelementptr inbounds nuw %struct.Supp_Man_t_, ptr %20, i32 0, i32 12
  %22 = getelementptr inbounds [2 x ptr], ptr %21, i64 0, i64 0
  %23 = load ptr, ptr %22, align 8, !tbaa !3
  %24 = load i32, ptr %7, align 4, !tbaa !8
  %25 = load ptr, ptr %4, align 8, !tbaa !24
  %26 = getelementptr inbounds nuw %struct.Supp_Man_t_, ptr %25, i32 0, i32 3
  %27 = load i32, ptr %26, align 4, !tbaa !74
  %28 = mul nsw i32 %24, %27
  %29 = call ptr @Vec_WrdEntryP(ptr noundef %23, i32 noundef %28)
  store ptr %29, ptr %9, align 8, !tbaa !10
  call void @llvm.lifetime.start.p0(i64 8, ptr %10) #15
  %30 = load ptr, ptr %4, align 8, !tbaa !24
  %31 = getelementptr inbounds nuw %struct.Supp_Man_t_, ptr %30, i32 0, i32 12
  %32 = getelementptr inbounds [2 x ptr], ptr %31, i64 0, i64 0
  %33 = load ptr, ptr %32, align 8, !tbaa !3
  %34 = load i32, ptr %8, align 4, !tbaa !8
  %35 = load ptr, ptr %4, align 8, !tbaa !24
  %36 = getelementptr inbounds nuw %struct.Supp_Man_t_, ptr %35, i32 0, i32 3
  %37 = load i32, ptr %36, align 4, !tbaa !74
  %38 = mul nsw i32 %34, %37
  %39 = call ptr @Vec_WrdEntryP(ptr noundef %33, i32 noundef %38)
  store ptr %39, ptr %10, align 8, !tbaa !10
  call void @llvm.lifetime.start.p0(i64 8, ptr %11) #15
  %40 = load ptr, ptr %4, align 8, !tbaa !24
  %41 = getelementptr inbounds nuw %struct.Supp_Man_t_, ptr %40, i32 0, i32 12
  %42 = getelementptr inbounds [2 x ptr], ptr %41, i64 0, i64 1
  %43 = load ptr, ptr %42, align 8, !tbaa !3
  %44 = load i32, ptr %7, align 4, !tbaa !8
  %45 = load ptr, ptr %4, align 8, !tbaa !24
  %46 = getelementptr inbounds nuw %struct.Supp_Man_t_, ptr %45, i32 0, i32 3
  %47 = load i32, ptr %46, align 4, !tbaa !74
  %48 = mul nsw i32 %44, %47
  %49 = call ptr @Vec_WrdEntryP(ptr noundef %43, i32 noundef %48)
  store ptr %49, ptr %11, align 8, !tbaa !10
  call void @llvm.lifetime.start.p0(i64 8, ptr %12) #15
  %50 = load ptr, ptr %4, align 8, !tbaa !24
  %51 = getelementptr inbounds nuw %struct.Supp_Man_t_, ptr %50, i32 0, i32 12
  %52 = getelementptr inbounds [2 x ptr], ptr %51, i64 0, i64 1
  %53 = load ptr, ptr %52, align 8, !tbaa !3
  %54 = load i32, ptr %8, align 4, !tbaa !8
  %55 = load ptr, ptr %4, align 8, !tbaa !24
  %56 = getelementptr inbounds nuw %struct.Supp_Man_t_, ptr %55, i32 0, i32 3
  %57 = load i32, ptr %56, align 4, !tbaa !74
  %58 = mul nsw i32 %54, %57
  %59 = call ptr @Vec_WrdEntryP(ptr noundef %53, i32 noundef %58)
  store ptr %59, ptr %12, align 8, !tbaa !10
  call void @llvm.lifetime.start.p0(i64 4, ptr %13) #15
  %60 = load ptr, ptr %9, align 8, !tbaa !10
  %61 = load ptr, ptr %12, align 8, !tbaa !10
  %62 = load ptr, ptr %4, align 8, !tbaa !24
  %63 = getelementptr inbounds nuw %struct.Supp_Man_t_, ptr %62, i32 0, i32 3
  %64 = load i32, ptr %63, align 4, !tbaa !74
  %65 = call i32 @Abc_TtFindFirstAndBit2(ptr noundef %60, ptr noundef %61, i32 noundef %64)
  store i32 %65, ptr %13, align 4, !tbaa !8
  call void @llvm.lifetime.start.p0(i64 4, ptr %14) #15
  %66 = load ptr, ptr %10, align 8, !tbaa !10
  %67 = load ptr, ptr %11, align 8, !tbaa !10
  %68 = load ptr, ptr %4, align 8, !tbaa !24
  %69 = getelementptr inbounds nuw %struct.Supp_Man_t_, ptr %68, i32 0, i32 3
  %70 = load i32, ptr %69, align 4, !tbaa !74
  %71 = call i32 @Abc_TtFindFirstAndBit2(ptr noundef %66, ptr noundef %67, i32 noundef %70)
  store i32 %71, ptr %14, align 4, !tbaa !8
  %72 = load i32, ptr %13, align 4, !tbaa !8
  %73 = icmp eq i32 %72, -1
  br i1 %73, label %74, label %75

74:                                               ; preds = %2
  br label %77

75:                                               ; preds = %2
  %76 = load i32, ptr %13, align 4, !tbaa !8
  br label %77

77:                                               ; preds = %75, %74
  %78 = phi i32 [ 1000000000, %74 ], [ %76, %75 ]
  store i32 %78, ptr %13, align 4, !tbaa !8
  %79 = load i32, ptr %14, align 4, !tbaa !8
  %80 = icmp eq i32 %79, -1
  br i1 %80, label %81, label %82

81:                                               ; preds = %77
  br label %84

82:                                               ; preds = %77
  %83 = load i32, ptr %14, align 4, !tbaa !8
  br label %84

84:                                               ; preds = %82, %81
  %85 = phi i32 [ 1000000000, %81 ], [ %83, %82 ]
  store i32 %85, ptr %14, align 4, !tbaa !8
  %86 = load i32, ptr %13, align 4, !tbaa !8
  %87 = load i32, ptr %14, align 4, !tbaa !8
  %88 = call i32 @Abc_MinInt(i32 noundef %86, i32 noundef %87)
  store i32 %88, ptr %6, align 4, !tbaa !8
  %89 = load i32, ptr %6, align 4, !tbaa !8
  %90 = icmp eq i32 %89, 1000000000
  br i1 %90, label %91, label %92

91:                                               ; preds = %84
  store i32 -1, ptr %3, align 4
  store i32 1, ptr %15, align 4
  br label %94

92:                                               ; preds = %84
  %93 = load i32, ptr %6, align 4, !tbaa !8
  store i32 %93, ptr %3, align 4
  store i32 1, ptr %15, align 4
  br label %94

94:                                               ; preds = %92, %91
  call void @llvm.lifetime.end.p0(i64 4, ptr %14) #15
  call void @llvm.lifetime.end.p0(i64 4, ptr %13) #15
  call void @llvm.lifetime.end.p0(i64 8, ptr %12) #15
  call void @llvm.lifetime.end.p0(i64 8, ptr %11) #15
  call void @llvm.lifetime.end.p0(i64 8, ptr %10) #15
  call void @llvm.lifetime.end.p0(i64 8, ptr %9) #15
  call void @llvm.lifetime.end.p0(i64 4, ptr %8) #15
  call void @llvm.lifetime.end.p0(i64 4, ptr %7) #15
  call void @llvm.lifetime.end.p0(i64 4, ptr %6) #15
  %95 = load i32, ptr %3, align 4
  ret i32 %95
}