; Function Attrs: nofree norecurse nosync nounwind memory(read, inaccessiblemem: none) uwtable
define range(i32 1000000001, 1000000000) i32 @Supp_FindNextDiv(ptr noundef readonly captures(none) %0, i32 noundef %1) local_unnamed_addr #2 {
  %3 = ashr i32 %1, 16
  %4 = and i32 %1, 65535
  %5 = getelementptr inbounds nuw i8, ptr %0, i64 96
  %6 = load ptr, ptr %5, align 8, !tbaa !59
  %7 = getelementptr inbounds nuw i8, ptr %0, i64 12
  %8 = load i32, ptr %7, align 4, !tbaa !72
  %9 = mul nsw i32 %8, %3
  %10 = getelementptr i8, ptr %6, i64 8
  %.val31 = load ptr, ptr %10, align 8, !tbaa !10
  %11 = sext i32 %9 to i64
  %12 = getelementptr inbounds i64, ptr %.val31, i64 %11
  %13 = mul nsw i32 %8, %4
  %14 = sext i32 %13 to i64
  %15 = getelementptr inbounds i64, ptr %.val31, i64 %14
  %16 = getelementptr inbounds nuw i8, ptr %0, i64 104
  %17 = load ptr, ptr %16, align 8, !tbaa !59
  %18 = getelementptr i8, ptr %17, i64 8
  %.val29 = load ptr, ptr %18, align 8, !tbaa !10
  %19 = getelementptr inbounds i64, ptr %.val29, i64 %11
  %20 = getelementptr inbounds i64, ptr %.val29, i64 %14
  %21 = icmp sgt i32 %8, 0
  br i1 %21, label %.lr.ph.preheader.i, label %.thread

.lr.ph.preheader.i:                               ; preds = %2
  %wide.trip.count.i = zext nneg i32 %8 to i64
  br label %.lr.ph.i

.lr.ph.i:                                         ; preds = %54, %.lr.ph.preheader.i
  %indvars.iv.i = phi i64 [ 0, %.lr.ph.preheader.i ], [ %indvars.iv.next.i, %54 ]
  %22 = getelementptr inbounds nuw i64, ptr %12, i64 %indvars.iv.i
  %23 = load i64, ptr %22, align 8, !tbaa !11
  %24 = getelementptr inbounds nuw i64, ptr %20, i64 %indvars.iv.i
  %25 = load i64, ptr %24, align 8, !tbaa !11
  %26 = and i64 %25, %23
  %.not.i = icmp eq i64 %26, 0
  br i1 %.not.i, label %54, label %27

27:                                               ; preds = %.lr.ph.i
  %28 = trunc nuw nsw i64 %indvars.iv.i to i32
  %29 = shl nsw i32 %28, 6
  %30 = and i64 %26, 4294967295
  %31 = icmp eq i64 %30, 0
  %32 = lshr exact i64 %26, 32
  %.020.i.i = select i1 %31, i64 %32, i64 %26
  %.0.i.i = select i1 %31, i32 32, i32 0
  %33 = and i64 %.020.i.i, 65535
  %34 = icmp eq i64 %33, 0
  %35 = or disjoint i32 %.0.i.i, 16
  %36 = lshr exact i64 %.020.i.i, 16
  %.121.i.i = select i1 %34, i64 %36, i64 %.020.i.i
  %.1.i.i = select i1 %34, i32 %35, i32 %.0.i.i
  %37 = and i64 %.121.i.i, 255
  %38 = icmp eq i64 %37, 0
  %39 = or disjoint i32 %.1.i.i, 8
  %40 = lshr exact i64 %.121.i.i, 8
  %.222.i.i = select i1 %38, i64 %40, i64 %.121.i.i
  %.2.i.i = select i1 %38, i32 %39, i32 %.1.i.i
  %41 = and i64 %.222.i.i, 15
  %42 = icmp eq i64 %41, 0
  %43 = or disjoint i32 %.2.i.i, 4
  %44 = lshr exact i64 %.222.i.i, 4
  %.323.i.i = select i1 %42, i64 %44, i64 %.222.i.i
  %.3.i.i = select i1 %42, i32 %43, i32 %.2.i.i
  %45 = and i64 %.323.i.i, 3
  %46 = icmp eq i64 %45, 0
  %47 = add nuw nsw i32 %.3.i.i, 2
  %48 = lshr exact i64 %.323.i.i, 2
  %.424.i.i = select i1 %46, i64 %48, i64 %.323.i.i
  %.4.i.i = select i1 %46, i32 %47, i32 %.3.i.i
  %49 = trunc i64 %.424.i.i to i32
  %50 = and i32 %49, 1
  %51 = xor i32 %50, 1
  %.5.i.i = add i32 %.4.i.i, %29
  %52 = add i32 %.5.i.i, %51
  %53 = freeze i32 %52
  br label %.lr.ph.preheader.i33

54:                                               ; preds = %.lr.ph.i
  %indvars.iv.next.i = add nuw nsw i64 %indvars.iv.i, 1
  %exitcond.not.i = icmp eq i64 %indvars.iv.next.i, %wide.trip.count.i
  br i1 %exitcond.not.i, label %.lr.ph.preheader.i33, label %.lr.ph.i, !llvm.loop !141

.lr.ph.preheader.i33:                             ; preds = %54, %27
  %.012.i = phi i32 [ %53, %27 ], [ -1, %54 ]
  br label %.lr.ph.i35

.lr.ph.i35:                                       ; preds = %60, %.lr.ph.preheader.i33
  %indvars.iv.i36 = phi i64 [ 0, %.lr.ph.preheader.i33 ], [ %indvars.iv.next.i49, %60 ]
  %55 = getelementptr inbounds nuw i64, ptr %15, i64 %indvars.iv.i36
  %56 = load i64, ptr %55, align 8, !tbaa !11
  %57 = getelementptr inbounds nuw i64, ptr %19, i64 %indvars.iv.i36
  %58 = load i64, ptr %57, align 8, !tbaa !11
  %59 = and i64 %58, %56
  %.not.i37 = icmp eq i64 %59, 0
  br i1 %.not.i37, label %60, label %Abc_TtFindFirstAndBit2.exit51

60:                                               ; preds = %.lr.ph.i35
  %indvars.iv.next.i49 = add nuw nsw i64 %indvars.iv.i36, 1
  %exitcond.not.i50 = icmp eq i64 %indvars.iv.next.i49, %wide.trip.count.i
  br i1 %exitcond.not.i50, label %Abc_TtFindFirstAndBit2.exit51.thread, label %.lr.ph.i35, !llvm.loop !141

Abc_TtFindFirstAndBit2.exit51.thread:             ; preds = %60
  %61 = icmp eq i32 %.012.i, -1
  %spec.select74 = select i1 %61, i32 1000000000, i32 %.012.i
  br label %.thread

Abc_TtFindFirstAndBit2.exit51:                    ; preds = %.lr.ph.i35
  %62 = trunc nuw nsw i64 %indvars.iv.i36 to i32
  %63 = shl nsw i32 %62, 6
  %64 = and i64 %59, 4294967295
  %65 = icmp eq i64 %64, 0
  %66 = lshr exact i64 %59, 32
  %.020.i.i38 = select i1 %65, i64 %66, i64 %59
  %.0.i.i39 = select i1 %65, i32 32, i32 0
  %67 = and i64 %.020.i.i38, 65535
  %68 = icmp eq i64 %67, 0
  %69 = or disjoint i32 %.0.i.i39, 16
  %70 = lshr exact i64 %.020.i.i38, 16
  %.121.i.i40 = select i1 %68, i64 %70, i64 %.020.i.i38
  %.1.i.i41 = select i1 %68, i32 %69, i32 %.0.i.i39
  %71 = and i64 %.121.i.i40, 255
  %72 = icmp eq i64 %71, 0
  %73 = or disjoint i32 %.1.i.i41, 8
  %74 = lshr exact i64 %.121.i.i40, 8
  %.222.i.i42 = select i1 %72, i64 %74, i64 %.121.i.i40
  %.2.i.i43 = select i1 %72, i32 %73, i32 %.1.i.i41
  %75 = and i64 %.222.i.i42, 15
  %76 = icmp eq i64 %75, 0
  %77 = or disjoint i32 %.2.i.i43, 4
  %78 = lshr exact i64 %.222.i.i42, 4
  %.323.i.i44 = select i1 %76, i64 %78, i64 %.222.i.i42
  %.3.i.i45 = select i1 %76, i32 %77, i32 %.2.i.i43
  %79 = and i64 %.323.i.i44, 3
  %80 = icmp eq i64 %79, 0
  %81 = add nuw nsw i32 %.3.i.i45, 2
  %82 = lshr exact i64 %.323.i.i44, 2
  %.424.i.i46 = select i1 %80, i64 %82, i64 %.323.i.i44
  %.4.i.i47 = select i1 %80, i32 %81, i32 %.3.i.i45
  %83 = trunc i64 %.424.i.i46 to i32
  %84 = and i32 %83, 1
  %85 = xor i32 %84, 1
  %.5.i.i48 = add i32 %.4.i.i47, %63
  %86 = add i32 %.5.i.i48, %85
  %87 = freeze i32 %86
  %88 = icmp eq i32 %.012.i, -1
  %spec.select = select i1 %88, i32 1000000000, i32 %.012.i
  %89 = icmp eq i32 %87, -1
  %spec.select82 = select i1 %89, i32 1000000000, i32 %87
  br label %.thread

.thread:                                          ; preds = %Abc_TtFindFirstAndBit2.exit51, %Abc_TtFindFirstAndBit2.exit51.thread, %2
  %90 = phi i32 [ 1000000000, %2 ], [ %spec.select74, %Abc_TtFindFirstAndBit2.exit51.thread ], [ %spec.select, %Abc_TtFindFirstAndBit2.exit51 ]
  %91 = phi i32 [ 1000000000, %2 ], [ 1000000000, %Abc_TtFindFirstAndBit2.exit51.thread ], [ %spec.select82, %Abc_TtFindFirstAndBit2.exit51 ]
  %92 = tail call noundef i32 @llvm.smin.i32(i32 %90, i32 %91)
  %93 = icmp eq i32 %92, 1000000000
  %. = select i1 %93, i32 -1, i32 %92
  ret i32 %.
}